target datalayout = "e-m:e-p270:32:32-p271:32:32-p272:64:64-i64:64-i128:128-f80:128-n8:16:32:64-S128"
target triple = "x86_64-pc-linux-gnu"

@.str.1 = private unnamed_addr constant [32 x i8] c"%s: pthread_rwlock_wrlock(): %m\00", align 1
@g_context_cnt = internal global i32 -1, align 4
@ops = internal global ptr null, align 8
@g_context = internal global ptr null, align 8
@.str.7 = private unnamed_addr constant [32 x i8] c"%s: pthread_rwlock_unlock(): %m\00", align 1
@__func__.job_submit_g_fini = private unnamed_addr constant [18 x i8] c"job_submit_g_fini\00", align 1
@context_lock = internal global { { i32, i32, i32, i32, i32, i32, i32, i32, i8, [7 x i8], i64, i32, [4 x i8] } } zeroinitializer, align 8

; Function Attrs: nounwind uwtable
define dso_local i32 @job_submit_g_fini(i1 noundef zeroext %0) #0 {
  %2 = alloca i8, align 1
  %3 = alloca i32, align 4
  %4 = alloca i32, align 4
  %5 = alloca i32, align 4
  %6 = alloca i32, align 4
  %7 = alloca i32, align 4
  %8 = zext i1 %0 to i8
  store i8 %8, ptr %2, align 1
  call void @llvm.lifetime.start.p0(i64 4, ptr %3) #7
  call void @llvm.lifetime.start.p0(i64 4, ptr %4) #7
  call void @llvm.lifetime.start.p0(i64 4, ptr %5) #7
  store i32 0, ptr %5, align 4
  %9 = load i8, ptr %2, align 1, !range !8, !noundef !9
  %10 = trunc i8 %9 to i1
  br i1 %10, label %22, label %11

11:                                               ; preds = %1
  br label %12

12:                                               ; preds = %11
  call void @llvm.lifetime.start.p0(i64 4, ptr %6) #7
  %13 = call i32 @pthread_rwlock_wrlock(ptr noundef @context_lock) #7
  store i32 %13, ptr %6, align 4
  %14 = load i32, ptr %6, align 4
  %15 = icmp ne i32 %14, 0
  br i1 %15, label %16, label %19

16:                                               ; preds = %12
  %17 = load i32, ptr %6, align 4
  %18 = call ptr @__errno_location() #8
  store i32 %17, ptr %18, align 4
  call void (ptr, ...) @fatal_abort(ptr noundef @.str.1, ptr noundef @__func__.job_submit_g_fini) #9
  unreachable

19:                                               ; preds = %12
  call void @llvm.lifetime.end.p0(i64 4, ptr %6) #7
  br label %20

20:                                               ; preds = %19
  br label %21

21:                                               ; preds = %20
  br label %22

22:                                               ; preds = %21, %1
  %23 = load i32, ptr @g_context_cnt, align 4
  %24 = icmp slt i32 %23, 0
  br i1 %24, label %25, label %26

25:                                               ; preds = %22
  br label %55

26:                                               ; preds = %22
  store i32 0, ptr %3, align 4
  br label %27

27:                                               ; preds = %51, %26
  %28 = load i32, ptr %3, align 4
  %29 = load i32, ptr @g_context_cnt, align 4
  %30 = icmp slt i32 %28, %29
  br i1 %30, label %31, label %54

31:                                               ; preds = %27
  %32 = load ptr, ptr @g_context, align 8
  %33 = load i32, ptr %3, align 4
  %34 = sext i32 %33 to i64
  %35 = getelementptr inbounds ptr, ptr %32, i64 %34
  %36 = load ptr, ptr %35, align 8
  %37 = icmp ne ptr %36, null
  br i1 %37, label %38, label %50

38:                                               ; preds = %31
  %39 = load ptr, ptr @g_context, align 8
  %40 = load i32, ptr %3, align 4
  %41 = sext i32 %40 to i64
  %42 = getelementptr inbounds ptr, ptr %39, i64 %41
  %43 = load ptr, ptr %42, align 8
  %44 = call i32 @plugin_context_destroy(ptr noundef %43)
  store i32 %44, ptr %4, align 4
  %45 = load i32, ptr %4, align 4
  %46 = icmp ne i32 %45, 0
  br i1 %46, label %47, label %49

47:                                               ; preds = %38
  %48 = load i32, ptr %4, align 4
  store i32 %48, ptr %5, align 4
  br label %49

49:                                               ; preds = %47, %38
  br label %50

50:                                               ; preds = %49, %31
  br label %51

51:                                               ; preds = %50
  %52 = load i32, ptr %3, align 4
  %53 = add nsw i32 %52, 1
  store i32 %53, ptr %3, align 4
  br label %27, !llvm.loop !13

54:                                               ; preds = %27
  call void @slurm_xfree(ptr noundef @ops)
  call void @slurm_xfree(ptr noundef @g_context)
  store i32 -1, ptr @g_context_cnt, align 4
  br label %55

55:                                               ; preds = %54, %25
  %56 = load i8, ptr %2, align 1, !range !8, !noundef !9
  %57 = trunc i8 %56 to i1
  br i1 %57, label %69, label %58

58:                                               ; preds = %55
  br label %59

59:                                               ; preds = %58
  call void @llvm.lifetime.start.p0(i64 4, ptr %7) #7
  %60 = call i32 @pthread_rwlock_unlock(ptr noundef @context_lock) #7
  store i32 %60, ptr %7, align 4
  %61 = load i32, ptr %7, align 4
  %62 = icmp ne i32 %61, 0
  br i1 %62, label %63, label %66

63:                                               ; preds = %59
  %64 = load i32, ptr %7, align 4
  %65 = call ptr @__errno_location() #8
  store i32 %64, ptr %65, align 4
  call void (ptr, ...) @fatal_abort(ptr noundef @.str.7, ptr noundef @__func__.job_submit_g_fini) #9
  unreachable

66:                                               ; preds = %59
  call void @llvm.lifetime.end.p0(i64 4, ptr %7) #7
  br label %67

67:                                               ; preds = %66
  br label %68

68:                                               ; preds = %67
  br label %69

69:                                               ; preds = %68, %55
  %70 = load i32, ptr %5, align 4
  call void @llvm.lifetime.end.p0(i64 4, ptr %5) #7
  call void @llvm.lifetime.end.p0(i64 4, ptr %4) #7
  call void @llvm.lifetime.end.p0(i64 4, ptr %3) #7
  ret i32 %70
}