; Function Attrs: nounwind uwtable
define dso_local i32 @job_submit_g_fini(i1 noundef zeroext %0) local_unnamed_addr #0 {
  br i1 %0, label %6, label %2

2:                                                ; preds = %1
  %3 = tail call i32 @pthread_rwlock_wrlock(ptr noundef nonnull @context_lock) #9
  %.not = icmp eq i32 %3, 0
  br i1 %.not, label %6, label %4

4:                                                ; preds = %2
  %5 = tail call ptr @__errno_location() #10
  store i32 %3, ptr %5, align 4
  tail call void (ptr, ...) @fatal_abort(ptr noundef nonnull @.str.1, ptr noundef nonnull @__func__.job_submit_g_fini) #11
  unreachable

6:                                                ; preds = %2, %1
  %7 = load i32, ptr @g_context_cnt, align 4
  %8 = icmp slt i32 %7, 0
  br i1 %8, label %20, label %.preheader

.preheader:                                       ; preds = %6
  %.not26 = icmp eq i32 %7, 0
  br i1 %.not26, label %._crit_edge, label %.lr.ph.preheader

.lr.ph.preheader:                                 ; preds = %.preheader
  %.pre24 = load ptr, ptr @g_context, align 8
  br label %.lr.ph

.lr.ph:                                           ; preds = %.lr.ph.preheader, %15
  %9 = phi i32 [ %7, %.lr.ph.preheader ], [ %16, %15 ]
  %10 = phi ptr [ %.pre24, %.lr.ph.preheader ], [ %17, %15 ]
  %indvars.iv = phi i64 [ 0, %.lr.ph.preheader ], [ %indvars.iv.next, %15 ]
  %.121 = phi i32 [ 0, %.lr.ph.preheader ], [ %.2, %15 ]
  %11 = getelementptr inbounds nuw ptr, ptr %10, i64 %indvars.iv
  %12 = load ptr, ptr %11, align 8
  %.not18 = icmp eq ptr %12, null
  br i1 %.not18, label %15, label %13

13:                                               ; preds = %.lr.ph
  %14 = tail call i32 @plugin_context_destroy(ptr noundef nonnull %12) #9
  %.not19 = icmp eq i32 %14, 0
  %spec.select = select i1 %.not19, i32 %.121, i32 %14
  %.pre = load ptr, ptr @g_context, align 8
  %.pre25 = load i32, ptr @g_context_cnt, align 4
  br label %15

15:                                               ; preds = %13, %.lr.ph
  %16 = phi i32 [ %9, %.lr.ph ], [ %.pre25, %13 ]
  %17 = phi ptr [ %10, %.lr.ph ], [ %.pre, %13 ]
  %.2 = phi i32 [ %.121, %.lr.ph ], [ %spec.select, %13 ]
  %indvars.iv.next = add nuw nsw i64 %indvars.iv, 1
  %18 = sext i32 %16 to i64
  %19 = icmp slt i64 %indvars.iv.next, %18
  br i1 %19, label %.lr.ph, label %._crit_edge, !llvm.loop !11

._crit_edge:                                      ; preds = %15, %.preheader
  %.1.lcssa = phi i32 [ 0, %.preheader ], [ %.2, %15 ]
  tail call void @slurm_xfree(ptr noundef nonnull @ops) #9
  tail call void @slurm_xfree(ptr noundef nonnull @g_context) #9
  store i32 -1, ptr @g_context_cnt, align 4
  br label %20

20:                                               ; preds = %6, %._crit_edge
  %.013 = phi i32 [ 0, %6 ], [ %.1.lcssa, %._crit_edge ]
  br i1 %0, label %25, label %21

21:                                               ; preds = %20
  %22 = tail call i32 @pthread_rwlock_unlock(ptr noundef nonnull @context_lock) #9
  %.not20 = icmp eq i32 %22, 0
  br i1 %.not20, label %25, label %23

23:                                               ; preds = %21
  %24 = tail call ptr @__errno_location() #10
  store i32 %22, ptr %24, align 4
  tail call void (ptr, ...) @fatal_abort(ptr noundef nonnull @.str.7, ptr noundef nonnull @__func__.job_submit_g_fini) #11
  unreachable

25:                                               ; preds = %21, %20
  ret i32 %.013
}